target datalayout = "e-m:e-p270:32:32-p271:32:32-p272:64:64-i64:64-i128:128-f80:128-n8:16:32:64-S128"
target triple = "x86_64-pc-linux-gnu"

%"struct.p2t::Point" = type { double, double, %"class.std::vector" }
%"class.std::vector" = type { %"struct.std::_Vector_base" }
%"struct.std::_Vector_base" = type { %"struct.std::_Vector_base<p2t::Edge *, std::allocator<p2t::Edge *>>::_Vector_impl" }
%"struct.std::_Vector_base<p2t::Edge *, std::allocator<p2t::Edge *>>::_Vector_impl" = type { %"struct.std::_Vector_base<p2t::Edge *, std::allocator<p2t::Edge *>>::_Vector_impl_data" }
%"struct.std::_Vector_base<p2t::Edge *, std::allocator<p2t::Edge *>>::_Vector_impl_data" = type { ptr, ptr, ptr }
%"struct.p2t::Node" = type { ptr, ptr, ptr, ptr, double }

; Function Attrs: mustprogress nounwind uwtable
define hidden noundef double @_ZNK3p2t5Sweep5AngleEPKNS_5PointES3_S3_(ptr noundef nonnull align 8 dereferenceable(24) %0, ptr noundef %1, ptr noundef %2, ptr noundef %3) #2 align 2 {
  %5 = alloca ptr, align 8
  %6 = alloca ptr, align 8
  %7 = alloca ptr, align 8
  %8 = alloca ptr, align 8
  %9 = alloca double, align 8
  %10 = alloca double, align 8
  %11 = alloca double, align 8
  %12 = alloca double, align 8
  %13 = alloca double, align 8
  %14 = alloca double, align 8
  %15 = alloca double, align 8
  %16 = alloca double, align 8
  store ptr %0, ptr %5, align 8
  store ptr %1, ptr %6, align 8
  store ptr %2, ptr %7, align 8
  store ptr %3, ptr %8, align 8
  call void @llvm.lifetime.start.p0(i64 8, ptr %9) #14
  %17 = load ptr, ptr %6, align 8
  %18 = getelementptr inbounds nuw %"struct.p2t::Point", ptr %17, i32 0, i32 0
  %19 = load double, ptr %18, align 8
  store double %19, ptr %9, align 8
  call void @llvm.lifetime.start.p0(i64 8, ptr %10) #14
  %20 = load ptr, ptr %6, align 8
  %21 = getelementptr inbounds nuw %"struct.p2t::Point", ptr %20, i32 0, i32 1
  %22 = load double, ptr %21, align 8
  store double %22, ptr %10, align 8
  call void @llvm.lifetime.start.p0(i64 8, ptr %11) #14
  %23 = load ptr, ptr %7, align 8
  %24 = getelementptr inbounds nuw %"struct.p2t::Point", ptr %23, i32 0, i32 0
  %25 = load double, ptr %24, align 8
  %26 = load double, ptr %9, align 8
  %27 = fsub double %25, %26
  store double %27, ptr %11, align 8
  call void @llvm.lifetime.start.p0(i64 8, ptr %12) #14
  %28 = load ptr, ptr %7, align 8
  %29 = getelementptr inbounds nuw %"struct.p2t::Point", ptr %28, i32 0, i32 1
  %30 = load double, ptr %29, align 8
  %31 = load double, ptr %10, align 8
  %32 = fsub double %30, %31
  store double %32, ptr %12, align 8
  call void @llvm.lifetime.start.p0(i64 8, ptr %13) #14
  %33 = load ptr, ptr %8, align 8
  %34 = getelementptr inbounds nuw %"struct.p2t::Point", ptr %33, i32 0, i32 0
  %35 = load double, ptr %34, align 8
  %36 = load double, ptr %9, align 8
  %37 = fsub double %35, %36
  store double %37, ptr %13, align 8
  call void @llvm.lifetime.start.p0(i64 8, ptr %14) #14
  %38 = load ptr, ptr %8, align 8
  %39 = getelementptr inbounds nuw %"struct.p2t::Point", ptr %38, i32 0, i32 1
  %40 = load double, ptr %39, align 8
  %41 = load double, ptr %10, align 8
  %42 = fsub double %40, %41
  store double %42, ptr %14, align 8
  call void @llvm.lifetime.start.p0(i64 8, ptr %15) #14
  %43 = load double, ptr %11, align 8
  %44 = load double, ptr %14, align 8
  %45 = load double, ptr %12, align 8
  %46 = load double, ptr %13, align 8
  %47 = fmul double %45, %46
  %48 = fneg double %47
  %49 = call double @llvm.fmuladd.f64(double %43, double %44, double %48)
  store double %49, ptr %15, align 8
  call void @llvm.lifetime.start.p0(i64 8, ptr %16) #14
  %50 = load double, ptr %11, align 8
  %51 = load double, ptr %13, align 8
  %52 = load double, ptr %12, align 8
  %53 = load double, ptr %14, align 8
  %54 = fmul double %52, %53
  %55 = call double @llvm.fmuladd.f64(double %50, double %51, double %54)
  store double %55, ptr %16, align 8
  %56 = load double, ptr %15, align 8
  %57 = load double, ptr %16, align 8
  %58 = call double @atan2(double noundef %56, double noundef %57) #14
  call void @llvm.lifetime.end.p0(i64 8, ptr %16) #14
  call void @llvm.lifetime.end.p0(i64 8, ptr %15) #14
  call void @llvm.lifetime.end.p0(i64 8, ptr %14) #14
  call void @llvm.lifetime.end.p0(i64 8, ptr %13) #14
  call void @llvm.lifetime.end.p0(i64 8, ptr %12) #14
  call void @llvm.lifetime.end.p0(i64 8, ptr %11) #14
  call void @llvm.lifetime.end.p0(i64 8, ptr %10) #14
  call void @llvm.lifetime.end.p0(i64 8, ptr %9) #14
  ret double %58
}

; Function Attrs: mustprogress uwtable
define hidden noundef zeroext i1 @_ZNK3p2t5Sweep37AngleExceedsPlus90DegreesOrIsNegativeEPKNS_5PointES3_S3_(ptr noundef nonnull align 8 dereferenceable(24) %0, ptr noundef %1, ptr noundef %2, ptr noundef %3) #0 align 2 {
  %5 = alloca ptr, align 8
  %6 = alloca ptr, align 8
  %7 = alloca ptr, align 8
  %8 = alloca ptr, align 8
  %9 = alloca double, align 8
  store ptr %0, ptr %5, align 8
  store ptr %1, ptr %6, align 8
  store ptr %2, ptr %7, align 8
  store ptr %3, ptr %8, align 8
  %10 = load ptr, ptr %5, align 8
  call void @llvm.lifetime.start.p0(i64 8, ptr %9) #14
  %11 = load ptr, ptr %6, align 8
  %12 = load ptr, ptr %7, align 8
  %13 = load ptr, ptr %8, align 8
  %14 = call noundef double @_ZNK3p2t5Sweep5AngleEPKNS_5PointES3_S3_(ptr noundef nonnull align 8 dereferenceable(24) %10, ptr noundef %11, ptr noundef %12, ptr noundef %13)
  store double %14, ptr %9, align 8
  %15 = load double, ptr %9, align 8
  %16 = fcmp ogt double %15, 0x3FF921FB54442D18
  br i1 %16, label %20, label %17

17:                                               ; preds = %4
  %18 = load double, ptr %9, align 8
  %19 = fcmp olt double %18, 0.000000e+00
  br label %20

20:                                               ; preds = %17, %4
  %21 = phi i1 [ true, %4 ], [ %19, %17 ]
  call void @llvm.lifetime.end.p0(i64 8, ptr %9) #14
  ret i1 %21
}

; Function Attrs: mustprogress uwtable
define hidden noundef zeroext i1 @_ZNK3p2t5Sweep15AngleIsNegativeEPKNS_5PointES3_S3_(ptr noundef nonnull align 8 dereferenceable(24) %0, ptr noundef %1, ptr noundef %2, ptr noundef %3) #0 align 2 {
  %5 = alloca ptr, align 8
  %6 = alloca ptr, align 8
  %7 = alloca ptr, align 8
  %8 = alloca ptr, align 8
  %9 = alloca double, align 8
  store ptr %0, ptr %5, align 8
  store ptr %1, ptr %6, align 8
  store ptr %2, ptr %7, align 8
  store ptr %3, ptr %8, align 8
  %10 = load ptr, ptr %5, align 8
  call void @llvm.lifetime.start.p0(i64 8, ptr %9) #14
  %11 = load ptr, ptr %6, align 8
  %12 = load ptr, ptr %7, align 8
  %13 = load ptr, ptr %8, align 8
  %14 = call noundef double @_ZNK3p2t5Sweep5AngleEPKNS_5PointES3_S3_(ptr noundef nonnull align 8 dereferenceable(24) %10, ptr noundef %11, ptr noundef %12, ptr noundef %13)
  store double %14, ptr %9, align 8
  %15 = load double, ptr %9, align 8
  %16 = fcmp olt double %15, 0.000000e+00
  call void @llvm.lifetime.end.p0(i64 8, ptr %9) #14
  ret i1 %16
}

; Function Attrs: mustprogress uwtable
define hidden noundef zeroext i1 @_ZNK3p2t5Sweep21AngleExceeds90DegreesEPKNS_5PointES3_S3_(ptr noundef nonnull align 8 dereferenceable(24) %0, ptr noundef %1, ptr noundef %2, ptr noundef %3) #0 align 2 {
  %5 = alloca ptr, align 8
  %6 = alloca ptr, align 8
  %7 = alloca ptr, align 8
  %8 = alloca ptr, align 8
  %9 = alloca double, align 8
  store ptr %0, ptr %5, align 8
  store ptr %1, ptr %6, align 8
  store ptr %2, ptr %7, align 8
  store ptr %3, ptr %8, align 8
  %10 = load ptr, ptr %5, align 8
  call void @llvm.lifetime.start.p0(i64 8, ptr %9) #14
  %11 = load ptr, ptr %6, align 8
  %12 = load ptr, ptr %7, align 8
  %13 = load ptr, ptr %8, align 8
  %14 = call noundef double @_ZNK3p2t5Sweep5AngleEPKNS_5PointES3_S3_(ptr noundef nonnull align 8 dereferenceable(24) %10, ptr noundef %11, ptr noundef %12, ptr noundef %13)
  store double %14, ptr %9, align 8
  %15 = load double, ptr %9, align 8
  %16 = fcmp ogt double %15, 0x3FF921FB54442D18
  br i1 %16, label %20, label %17

17:                                               ; preds = %4
  %18 = load double, ptr %9, align 8
  %19 = fcmp olt double %18, 0xBFF921FB54442D18
  br label %20

20:                                               ; preds = %17, %4
  %21 = phi i1 [ true, %4 ], [ %19, %17 ]
  call void @llvm.lifetime.end.p0(i64 8, ptr %9) #14
  ret i1 %21
}

; Function Attrs: mustprogress uwtable
define hidden noundef zeroext i1 @_ZNK3p2t5Sweep18LargeHole_DontFillEPKNS_4NodeE(ptr noundef nonnull align 8 dereferenceable(24) %0, ptr noundef %1) #0 align 2 {
  %3 = alloca i1, align 1
  %4 = alloca ptr, align 8
  %5 = alloca ptr, align 8
  %6 = alloca ptr, align 8
  %7 = alloca ptr, align 8
  %8 = alloca i32, align 4
  %9 = alloca ptr, align 8
  %10 = alloca ptr, align 8
  store ptr %0, ptr %4, align 8
  store ptr %1, ptr %5, align 8
  %11 = load ptr, ptr %4, align 8
  call void @llvm.lifetime.start.p0(i64 8, ptr %6) #14
  %12 = load ptr, ptr %5, align 8
  %13 = getelementptr inbounds nuw %"struct.p2t::Node", ptr %12, i32 0, i32 2
  %14 = load ptr, ptr %13, align 8
  store ptr %14, ptr %6, align 8
  call void @llvm.lifetime.start.p0(i64 8, ptr %7) #14
  %15 = load ptr, ptr %5, align 8
  %16 = getelementptr inbounds nuw %"struct.p2t::Node", ptr %15, i32 0, i32 3
  %17 = load ptr, ptr %16, align 8
  store ptr %17, ptr %7, align 8
  %18 = load ptr, ptr %5, align 8
  %19 = getelementptr inbounds nuw %"struct.p2t::Node", ptr %18, i32 0, i32 0
  %20 = load ptr, ptr %19, align 8
  %21 = load ptr, ptr %6, align 8
  %22 = getelementptr inbounds nuw %"struct.p2t::Node", ptr %21, i32 0, i32 0
  %23 = load ptr, ptr %22, align 8
  %24 = load ptr, ptr %7, align 8
  %25 = getelementptr inbounds nuw %"struct.p2t::Node", ptr %24, i32 0, i32 0
  %26 = load ptr, ptr %25, align 8
  %27 = call noundef zeroext i1 @_ZNK3p2t5Sweep21AngleExceeds90DegreesEPKNS_5PointES3_S3_(ptr noundef nonnull align 8 dereferenceable(24) %11, ptr noundef %20, ptr noundef %23, ptr noundef %26)
  br i1 %27, label %29, label %28

28:                                               ; preds = %2
  store i1 false, ptr %3, align 1
  store i32 1, ptr %8, align 4
  br label %80

29:                                               ; preds = %2
  %30 = load ptr, ptr %5, align 8
  %31 = getelementptr inbounds nuw %"struct.p2t::Node", ptr %30, i32 0, i32 0
  %32 = load ptr, ptr %31, align 8
  %33 = load ptr, ptr %6, align 8
  %34 = getelementptr inbounds nuw %"struct.p2t::Node", ptr %33, i32 0, i32 0
  %35 = load ptr, ptr %34, align 8
  %36 = load ptr, ptr %7, align 8
  %37 = getelementptr inbounds nuw %"struct.p2t::Node", ptr %36, i32 0, i32 0
  %38 = load ptr, ptr %37, align 8
  %39 = call noundef zeroext i1 @_ZNK3p2t5Sweep15AngleIsNegativeEPKNS_5PointES3_S3_(ptr noundef nonnull align 8 dereferenceable(24) %11, ptr noundef %32, ptr noundef %35, ptr noundef %38)
  br i1 %39, label %40, label %41

40:                                               ; preds = %29
  store i1 true, ptr %3, align 1
  store i32 1, ptr %8, align 4
  br label %80

41:                                               ; preds = %29
  call void @llvm.lifetime.start.p0(i64 8, ptr %9) #14
  %42 = load ptr, ptr %6, align 8
  %43 = getelementptr inbounds nuw %"struct.p2t::Node", ptr %42, i32 0, i32 2
  %44 = load ptr, ptr %43, align 8
  store ptr %44, ptr %9, align 8
  %45 = load ptr, ptr %9, align 8
  %46 = icmp ne ptr %45, null
  br i1 %46, label %47, label %59

47:                                               ; preds = %41
  %48 = load ptr, ptr %5, align 8
  %49 = getelementptr inbounds nuw %"struct.p2t::Node", ptr %48, i32 0, i32 0
  %50 = load ptr, ptr %49, align 8
  %51 = load ptr, ptr %9, align 8
  %52 = getelementptr inbounds nuw %"struct.p2t::Node", ptr %51, i32 0, i32 0
  %53 = load ptr, ptr %52, align 8
  %54 = load ptr, ptr %7, align 8
  %55 = getelementptr inbounds nuw %"struct.p2t::Node", ptr %54, i32 0, i32 0
  %56 = load ptr, ptr %55, align 8
  %57 = call noundef zeroext i1 @_ZNK3p2t5Sweep37AngleExceedsPlus90DegreesOrIsNegativeEPKNS_5PointES3_S3_(ptr noundef nonnull align 8 dereferenceable(24) %11, ptr noundef %50, ptr noundef %53, ptr noundef %56)
  br i1 %57, label %59, label %58

58:                                               ; preds = %47
  store i1 false, ptr %3, align 1
  store i32 1, ptr %8, align 4
  br label %79

59:                                               ; preds = %47, %41
  call void @llvm.lifetime.start.p0(i64 8, ptr %10) #14
  %60 = load ptr, ptr %7, align 8
  %61 = getelementptr inbounds nuw %"struct.p2t::Node", ptr %60, i32 0, i32 3
  %62 = load ptr, ptr %61, align 8
  store ptr %62, ptr %10, align 8
  %63 = load ptr, ptr %10, align 8
  %64 = icmp ne ptr %63, null
  br i1 %64, label %65, label %77

65:                                               ; preds = %59
  %66 = load ptr, ptr %5, align 8
  %67 = getelementptr inbounds nuw %"struct.p2t::Node", ptr %66, i32 0, i32 0
  %68 = load ptr, ptr %67, align 8
  %69 = load ptr, ptr %6, align 8
  %70 = getelementptr inbounds nuw %"struct.p2t::Node", ptr %69, i32 0, i32 0
  %71 = load ptr, ptr %70, align 8
  %72 = load ptr, ptr %10, align 8
  %73 = getelementptr inbounds nuw %"struct.p2t::Node", ptr %72, i32 0, i32 0
  %74 = load ptr, ptr %73, align 8
  %75 = call noundef zeroext i1 @_ZNK3p2t5Sweep37AngleExceedsPlus90DegreesOrIsNegativeEPKNS_5PointES3_S3_(ptr noundef nonnull align 8 dereferenceable(24) %11, ptr noundef %68, ptr noundef %71, ptr noundef %74)
  br i1 %75, label %77, label %76

76:                                               ; preds = %65
  store i1 false, ptr %3, align 1
  store i32 1, ptr %8, align 4
  br label %78

77:                                               ; preds = %65, %59
  store i1 true, ptr %3, align 1
  store i32 1, ptr %8, align 4
  br label %78

78:                                               ; preds = %77, %76
  call void @llvm.lifetime.end.p0(i64 8, ptr %10) #14
  br label %79

79:                                               ; preds = %78, %58
  call void @llvm.lifetime.end.p0(i64 8, ptr %9) #14
  br label %80

80:                                               ; preds = %79, %40, %28
  call void @llvm.lifetime.end.p0(i64 8, ptr %7) #14
  call void @llvm.lifetime.end.p0(i64 8, ptr %6) #14
  %81 = load i1, ptr %3, align 1
  ret i1 %81
}